; Function Attrs: mustprogress uwtable
define void @_ZN3zmq5rep_tC2EPNS_5ctx_tEji(ptr noundef nonnull align 8 dereferenceable(2184) %this, ptr noundef %parent_, i32 noundef %tid_, i32 noundef %sid_) unnamed_addr #0 align 2 {
entry:
  tail call void @_ZN3zmq8router_tC2EPNS_5ctx_tEji(ptr noundef nonnull align 8 dereferenceable(2180) %this, ptr noundef %parent_, i32 noundef %tid_, i32 noundef %sid_)
  store ptr getelementptr inbounds ({ [47 x ptr], [4 x ptr], [7 x ptr], [8 x ptr] }, ptr @_ZTVN3zmq5rep_tE, i64 0, i32 0, i64 2), ptr %this, align 8
  %add.ptr = getelementptr inbounds i8, ptr %this, i64 1448
  store ptr getelementptr inbounds ({ [47 x ptr], [4 x ptr], [7 x ptr], [8 x ptr] }, ptr @_ZTVN3zmq5rep_tE, i64 0, i32 1, i64 2), ptr %add.ptr, align 8
  %add.ptr2 = getelementptr inbounds i8, ptr %this, i64 1464
  store ptr getelementptr inbounds ({ [47 x ptr], [4 x ptr], [7 x ptr], [8 x ptr] }, ptr @_ZTVN3zmq5rep_tE, i64 0, i32 2, i64 2), ptr %add.ptr2, align 8
  %add.ptr3 = getelementptr inbounds i8, ptr %this, i64 1472
  store ptr getelementptr inbounds ({ [47 x ptr], [4 x ptr], [7 x ptr], [8 x ptr] }, ptr @_ZTVN3zmq5rep_tE, i64 0, i32 3, i64 2), ptr %add.ptr3, align 8
  %_sending_reply = getelementptr inbounds i8, ptr %this, i64 2180
  store i8 0, ptr %_sending_reply, align 4
  %_request_begins = getelementptr inbounds i8, ptr %this, i64 2181
  store i8 1, ptr %_request_begins, align 1
  %type = getelementptr inbounds i8, ptr %this, i64 332
  store i8 4, ptr %type, align 4
  ret void
}